target datalayout = "e-m:e-p270:32:32-p271:32:32-p272:64:64-i64:64-i128:128-f80:128-n8:16:32:64-S128"
target triple = "x86_64-pc-linux-gnu"

%"class.cv::details::TlsAbstraction" = type <{ i32, %"struct.std::atomic", [3 x i8] }>
%"struct.std::atomic" = type { %"struct.std::__atomic_base" }
%"struct.std::__atomic_base" = type { i8 }

; Function Attrs: mustprogress nounwind uwtable
define linkonce_odr noundef i32 @_ZStanSt12memory_orderSt23__memory_order_modifier(i32 noundef %0, i32 noundef %1) #5 comdat {
  %3 = alloca i32, align 4
  %4 = alloca i32, align 4
  store i32 %0, ptr %3, align 4, !tbaa !219
  store i32 %1, ptr %4, align 4, !tbaa !221
  %5 = load i32, ptr %3, align 4, !tbaa !219
  %6 = load i32, ptr %4, align 4, !tbaa !221
  %7 = and i32 %5, %6
  ret i32 %7
}

; Function Attrs: alwaysinline mustprogress nounwind uwtable
define linkonce_odr hidden noundef zeroext i1 @_ZNKSt13__atomic_baseIbE4loadESt12memory_order(ptr noundef nonnull align 1 dereferenceable(1) %0, i32 noundef %1) #21 comdat align 2 {
  %3 = alloca ptr, align 8
  %4 = alloca i32, align 4
  %5 = alloca i32, align 4
  %6 = alloca i8, align 1
  store ptr %0, ptr %3, align 8, !tbaa !216
  store i32 %1, ptr %4, align 4, !tbaa !219
  %7 = load ptr, ptr %3, align 8
  call void @llvm.lifetime.start.p0(i64 4, ptr %5) #3
  %8 = load i32, ptr %4, align 4, !tbaa !219
  %9 = call noundef i32 @_ZStanSt12memory_orderSt23__memory_order_modifier(i32 noundef %8, i32 noundef 65535)
  store i32 %9, ptr %5, align 4, !tbaa !219
  br label %10

10:                                               ; preds = %2
  br label %11

11:                                               ; preds = %10
  br label %12

12:                                               ; preds = %11
  br label %13

13:                                               ; preds = %12
  br label %14

14:                                               ; preds = %13
  br label %15

15:                                               ; preds = %14
  %16 = getelementptr inbounds nuw %"struct.std::__atomic_base", ptr %7, i32 0, i32 0
  %17 = load i32, ptr %4, align 4, !tbaa !219
  switch i32 %17, label %18 [
    i32 1, label %20
    i32 2, label %20
    i32 5, label %22
  ]

18:                                               ; preds = %15
  %19 = load atomic i8, ptr %16 monotonic, align 1
  store i8 %19, ptr %6, align 1
  br label %24

20:                                               ; preds = %15, %15
  %21 = load atomic i8, ptr %16 acquire, align 1
  store i8 %21, ptr %6, align 1
  br label %24

22:                                               ; preds = %15
  %23 = load atomic i8, ptr %16 seq_cst, align 1
  store i8 %23, ptr %6, align 1
  br label %24

24:                                               ; preds = %22, %20, %18
  %25 = load i8, ptr %6, align 1, !tbaa !8, !range !30, !noundef !31
  %26 = trunc i8 %25 to i1
  call void @llvm.lifetime.end.p0(i64 4, ptr %5) #3
  ret i1 %26
}

; Function Attrs: mustprogress nounwind uwtable
define linkonce_odr hidden noundef zeroext i1 @_ZNKSt6atomicIbEcvbEv(ptr noundef nonnull align 1 dereferenceable(1) %0) #5 comdat align 2 {
  %2 = alloca ptr, align 8
  store ptr %0, ptr %2, align 8, !tbaa !97
  %3 = load ptr, ptr %2, align 8
  %4 = getelementptr inbounds nuw %"struct.std::atomic", ptr %3, i32 0, i32 0
  %5 = call noundef zeroext i1 @_ZNKSt13__atomic_baseIbE4loadESt12memory_order(ptr noundef nonnull align 1 dereferenceable(1) %4, i32 noundef 5) #3
  ret i1 %5
}

; Function Attrs: mustprogress nounwind uwtable
define hidden noundef ptr @_ZNK2cv7details14TlsAbstraction7getDataEv(ptr noundef nonnull align 4 dereferenceable(5) %0) #5 align 2 {
  %2 = alloca ptr, align 8
  %3 = alloca ptr, align 8
  store ptr %0, ptr %3, align 8, !tbaa !95
  %4 = load ptr, ptr %3, align 8
  %5 = getelementptr inbounds nuw %"class.cv::details::TlsAbstraction", ptr %4, i32 0, i32 1
  %6 = call noundef zeroext i1 @_ZNKSt6atomicIbEcvbEv(ptr noundef nonnull align 1 dereferenceable(1) %5) #3
  br i1 %6, label %7, label %8

7:                                                ; preds = %1
  store ptr null, ptr %2, align 8
  br label %12

8:                                                ; preds = %1
  %9 = getelementptr inbounds nuw %"class.cv::details::TlsAbstraction", ptr %4, i32 0, i32 0
  %10 = load i32, ptr %9, align 4, !tbaa !99
  %11 = call ptr @pthread_getspecific(i32 noundef %10) #3
  store ptr %11, ptr %2, align 8
  br label %12

12:                                               ; preds = %8, %7
  %13 = load ptr, ptr %2, align 8
  ret ptr %13
}