; Function Attrs: mustprogress nounwind uwtable
define hidden noundef ptr @_ZNK2cv7details14TlsAbstraction7getDataEv(ptr noundef nonnull readonly align 4 captures(none) dereferenceable(5) %0) local_unnamed_addr #9 align 2 {
  %2 = getelementptr inbounds nuw i8, ptr %0, i64 4
  %3 = load atomic i8, ptr %2 seq_cst, align 4
  %4 = trunc i8 %3 to i1
  br i1 %4, label %8, label %5

5:                                                ; preds = %1
  %6 = load i32, ptr %0, align 4, !tbaa !122
  %7 = tail call ptr @pthread_getspecific(i32 noundef %6) #34
  br label %8

8:                                                ; preds = %1, %5
  %.0 = phi ptr [ %7, %5 ], [ null, %1 ]
  ret ptr %.0
}